Archive member included because of file (symbol)

/u/wbcowan/gnuarm-4.0.2/lib/gcc/arm-elf/4.0.2/libgcc.a(_udivsi3.o)
                              bin/bwio.o (__udivsi3)
/u/wbcowan/gnuarm-4.0.2/lib/gcc/arm-elf/4.0.2/libgcc.a(_umodsi3.o)
                              bin/bwio.o (__umodsi3)
/u/wbcowan/gnuarm-4.0.2/lib/gcc/arm-elf/4.0.2/libgcc.a(_dvmd_tls.o)
                              /u/wbcowan/gnuarm-4.0.2/lib/gcc/arm-elf/4.0.2/libgcc.a(_udivsi3.o) (__div0)

Memory Configuration

Name             Origin             Length             Attributes
ram              0x0000000000218000 0x0000000002000000
rom              0x0000000060000000 0x0000000000800000
*default*        0x0000000000000000 0xffffffffffffffff

Linker script and memory map


data            0x0000000000218000        0x0
                0x0000000000218000                _DataStart = .
 *(.data)
                0x0000000000218000                _DataEnd = .

bss             0x0000000000218000        0x0
                0x0000000000218000                _BssStart = .
 *(.bss)
                0x0000000000218000                _BssEnd = .

text            0x0000000000218000     0x7608
 *(.text)
 .text          0x0000000000218000       0xc0 bin/kernel.o
                0x0000000000218000                main
 .text          0x00000000002180c0      0x4f8 bin/kernInit.o
                0x0000000000218540                Init
 .text          0x00000000002185b8      0x5ec bin/syscall_kern.o
                0x0000000000218968                Scheduler_getNextReadyTask
                0x00000000002188c0                Scheduler_pushQueue
                0x00000000002189c8                Message_isSendQueueEmpty
                0x00000000002185b8                Task_create
                0x0000000000218af4                Message_pushSendQueue
                0x0000000000218a44                Message_popSendQueue
 .text          0x0000000000218ba4      0x9dc bin/syscall_kernHandler.o
                0x0000000000218e8c                syscall_kernHandler
 .text          0x0000000000219580      0x6e8 bin/syscall_userHandler.o
                0x00000000002196b0                Send
                0x0000000000219624                MyParentTid
                0x0000000000219658                Pass
                0x0000000000219aac                getc
                0x0000000000219844                WhoIs
                0x00000000002195a4                Create
                0x00000000002198b0                AwaitEvent
                0x000000000021971c                Receive
                0x0000000000219774                Reply
                0x00000000002195f0                MyTid
                0x0000000000219684                Exit
                0x0000000000219988                DelayUntil
                0x0000000000219b84                putc
                0x00000000002197cc                RegisterAs
                0x00000000002198f0                Delay
                0x0000000000219a20                Time
 .text          0x0000000000219c68      0x12c bin/first_user_task.o
                0x0000000000219c68                idleTask
                0x0000000000219c7c                firstUserTask
 .text          0x0000000000219d94      0x594 bin/nameServer.o
                0x0000000000219f2c                nameServer
 .text          0x000000000021a328      0x570 bin/clockServer.o
                0x000000000021a564                clockServer
 .text          0x000000000021a898      0x640 bin/uartServer1.o
                0x000000000021a9d8                UART1_Server
 .text          0x000000000021aed8      0x640 bin/uartServer2.o
                0x000000000021b018                UART2_Server
 .text          0x000000000021b518     0x186c bin/processors.o
                0x000000000021cb10                cmdProcessor
                0x000000000021b868                updateSwitchState
                0x000000000021c590                processFeed
                0x000000000021bddc                processCmd
                0x000000000021b518                initUI
                0x000000000021c990                sensorFeedProcessor
                0x000000000021c4d8                array2int
 .text          0x000000000021cd84      0x864 bin/RPS.o
                0x000000000021cecc                wait
                0x000000000021cf20                RPS_Server
 .text          0x000000000021d5e8       0xb0 bin/contextSwitch.o
                0x000000000021d674                kerxit
                0x000000000021d5e8                hwi_kerent
                0x000000000021d638                kerent
 .text          0x000000000021d698      0xc54 bin/bwio.o
                0x000000000021da10                bwputr
                0x000000000021df7c                bwi2a
                0x000000000021d698                bwsetfifo
                0x000000000021d86c                bwputc
                0x000000000021dccc                bwa2d
                0x000000000021d760                bwsetspeed
                0x000000000021d930                c2x
                0x000000000021dd74                bwa2i
                0x000000000021dc14                bwgetc
                0x000000000021de38                bwui2a
                0x000000000021dfe0                bwformat
                0x000000000021db0c                bwputw
                0x000000000021e2b4                bwprintf
                0x000000000021d990                bwputx
                0x000000000021da90                bwputstr
 .text          0x000000000021e2ec      0x904 bin/serialio.o
                0x000000000021e4c8                putw
                0x000000000021e44c                putstr
                0x000000000021e880                i2a
                0x000000000021e8e4                format
                0x000000000021e34c                putx
                0x000000000021e2ec                sc2x
                0x000000000021e73c                ui2a
                0x000000000021e678                a2i
                0x000000000021e5d0                a2d
                0x000000000021ebb8                sprintf
                0x000000000021e3cc                putr
 .text          0x000000000021ebf0      0x1c0 bin/utils.o
                0x000000000021ebf0                memcpy
                0x000000000021ed30                strEnq
                0x000000000021ecdc                strLen
 .text          0x000000000021edb0      0x110 /u/wbcowan/gnuarm-4.0.2/lib/gcc/arm-elf/4.0.2/libgcc.a(_udivsi3.o)
                0x000000000021edb0                __udivsi3
                0x000000000021eea8                __aeabi_uidivmod
 .text          0x000000000021eec0       0xcc /u/wbcowan/gnuarm-4.0.2/lib/gcc/arm-elf/4.0.2/libgcc.a(_umodsi3.o)
                0x000000000021eec0                __umodsi3
 .text          0x000000000021ef8c        0x4 /u/wbcowan/gnuarm-4.0.2/lib/gcc/arm-elf/4.0.2/libgcc.a(_dvmd_tls.o)
                0x000000000021ef8c                __aeabi_ldiv0
                0x000000000021ef8c                __div0
                0x000000000021ef8c                __aeabi_idiv0
 *(.got)
 .got           0x000000000021ef90       0x3c bin/kernInit.o
 *(.got.plt)
 .got.plt       0x000000000021efcc        0xc bin/kernInit.o
                0x000000000021efcc                _GLOBAL_OFFSET_TABLE_
 *(.rodata)
 .rodata        0x000000000021efd8       0x30 bin/syscall_userHandler.o
 .rodata        0x000000000021f008       0x10 bin/first_user_task.o
 .rodata        0x000000000021f018       0x50 bin/clockServer.o
 .rodata        0x000000000021f068       0x10 bin/uartServer1.o
 .rodata        0x000000000021f078       0x10 bin/uartServer2.o
 .rodata        0x000000000021f088      0x370 bin/processors.o
 .rodata        0x000000000021f3f8      0x210 bin/RPS.o
 *(.glue_7)
 *(.glue_7t)

.rel.dyn
LOAD bin/kernel.o
LOAD bin/kernInit.o
LOAD bin/syscall_kern.o
LOAD bin/syscall_kernHandler.o
LOAD bin/syscall_userHandler.o
LOAD bin/first_user_task.o
LOAD bin/nameServer.o
LOAD bin/clockServer.o
LOAD bin/uartServer1.o
LOAD bin/uartServer2.o
LOAD bin/processors.o
LOAD bin/RPS.o
LOAD bin/contextSwitch.o
LOAD bin/bwio.o
LOAD bin/serialio.o
LOAD bin/utils.o
LOAD /u/wbcowan/gnuarm-4.0.2/lib/gcc/arm-elf/4.0.2/libgcc.a
OUTPUT(kernel4.elf elf32-littlearm)

.comment        0x0000000000000000      0x120
 .comment       0x0000000000000000       0x12 bin/kernel.o
 .comment       0x0000000000000012       0x12 bin/kernInit.o
 .comment       0x0000000000000024       0x12 bin/syscall_kern.o
 .comment       0x0000000000000036       0x12 bin/syscall_kernHandler.o
 .comment       0x0000000000000048       0x12 bin/syscall_userHandler.o
 .comment       0x000000000000005a       0x12 bin/first_user_task.o
 .comment       0x000000000000006c       0x12 bin/nameServer.o
 .comment       0x000000000000007e       0x12 bin/clockServer.o
 .comment       0x0000000000000090       0x12 bin/uartServer1.o
 .comment       0x00000000000000a2       0x12 bin/uartServer2.o
 .comment       0x00000000000000b4       0x12 bin/processors.o
 .comment       0x00000000000000c6       0x12 bin/RPS.o
 .comment       0x00000000000000d8       0x12 bin/contextSwitch.o
 .comment       0x00000000000000ea       0x12 bin/bwio.o
 .comment       0x00000000000000fc       0x12 bin/serialio.o
 .comment       0x000000000000010e       0x12 bin/utils.o

.debug_line     0x0000000000000000      0x14f
 .debug_line    0x0000000000000000       0x86 /u/wbcowan/gnuarm-4.0.2/lib/gcc/arm-elf/4.0.2/libgcc.a(_udivsi3.o)
 .debug_line    0x0000000000000086       0x6f /u/wbcowan/gnuarm-4.0.2/lib/gcc/arm-elf/4.0.2/libgcc.a(_umodsi3.o)
 .debug_line    0x00000000000000f5       0x5a /u/wbcowan/gnuarm-4.0.2/lib/gcc/arm-elf/4.0.2/libgcc.a(_dvmd_tls.o)

.debug_info     0x0000000000000000      0x153
 .debug_info    0x0000000000000000       0x71 /u/wbcowan/gnuarm-4.0.2/lib/gcc/arm-elf/4.0.2/libgcc.a(_udivsi3.o)
 .debug_info    0x0000000000000071       0x71 /u/wbcowan/gnuarm-4.0.2/lib/gcc/arm-elf/4.0.2/libgcc.a(_umodsi3.o)
 .debug_info    0x00000000000000e2       0x71 /u/wbcowan/gnuarm-4.0.2/lib/gcc/arm-elf/4.0.2/libgcc.a(_dvmd_tls.o)

.debug_abbrev   0x0000000000000000       0x3c
 .debug_abbrev  0x0000000000000000       0x14 /u/wbcowan/gnuarm-4.0.2/lib/gcc/arm-elf/4.0.2/libgcc.a(_udivsi3.o)
 .debug_abbrev  0x0000000000000014       0x14 /u/wbcowan/gnuarm-4.0.2/lib/gcc/arm-elf/4.0.2/libgcc.a(_umodsi3.o)
 .debug_abbrev  0x0000000000000028       0x14 /u/wbcowan/gnuarm-4.0.2/lib/gcc/arm-elf/4.0.2/libgcc.a(_dvmd_tls.o)

.debug_aranges  0x0000000000000000       0x60
 .debug_aranges
                0x0000000000000000       0x20 /u/wbcowan/gnuarm-4.0.2/lib/gcc/arm-elf/4.0.2/libgcc.a(_udivsi3.o)
 .debug_aranges
                0x0000000000000020       0x20 /u/wbcowan/gnuarm-4.0.2/lib/gcc/arm-elf/4.0.2/libgcc.a(_umodsi3.o)
 .debug_aranges
                0x0000000000000040       0x20 /u/wbcowan/gnuarm-4.0.2/lib/gcc/arm-elf/4.0.2/libgcc.a(_dvmd_tls.o)
